target datalayout = "e-m:e-p270:32:32-p271:32:32-p272:64:64-i64:64-i128:128-f80:128-n8:16:32:64-S128"
target triple = "x86_64-pc-linux-gnu"

%class.ciSymbol = type <{ %class.ciBaseObject.base, [4 x i8], ptr, i32, [4 x i8] }>
%class.ciBaseObject.base = type <{ ptr, i32 }>
%class.ciBaseObject = type <{ ptr, i32, [4 x i8] }>

@_ZTV8ciSymbol = linkonce_odr hidden unnamed_addr constant { [6 x ptr] } { [6 x ptr] [ptr null, ptr null, ptr @_ZN8ciSymbol11type_stringEv, ptr @_ZNK8ciSymbol9is_symbolEv, ptr @_ZNK12ciBaseObject9is_objectEv, ptr @_ZNK12ciBaseObject11is_metadataEv] }, comdat, align 8
@_ZTV12ciBaseObject = linkonce_odr hidden unnamed_addr constant { [6 x ptr] } { [6 x ptr] [ptr null, ptr null, ptr @_ZN12ciBaseObject11type_stringEv, ptr @_ZNK12ciBaseObject9is_symbolEv, ptr @_ZNK12ciBaseObject9is_objectEv, ptr @_ZNK12ciBaseObject11is_metadataEv] }, comdat, align 8

; Function Attrs: mustprogress nounwind uwtable
define linkonce_odr hidden void @_ZN12ciBaseObjectC2Ev(ptr noundef nonnull align 8 dereferenceable(12) %0) unnamed_addr #1 comdat align 2 {
  %2 = alloca ptr, align 8
  store ptr %0, ptr %2, align 8
  %3 = load ptr, ptr %2, align 8
  store ptr getelementptr inbounds inrange(-16, 32) ({ [6 x ptr] }, ptr @_ZTV12ciBaseObject, i32 0, i32 0, i32 2), ptr %3, align 8
  %4 = getelementptr inbounds %class.ciBaseObject, ptr %3, i32 0, i32 1
  store i32 0, ptr %4, align 8
  ret void
}

; Function Attrs: mustprogress nounwind uwtable
define hidden void @_ZN8ciSymbolC2EP6Symbol10vmSymbolID(ptr noundef nonnull align 8 dereferenceable(28) %0, ptr noundef %1, i32 noundef %2) unnamed_addr #1 align 2 {
  %4 = alloca ptr, align 8
  %5 = alloca ptr, align 8
  %6 = alloca i32, align 4
  store ptr %0, ptr %4, align 8
  store ptr %1, ptr %5, align 8
  store i32 %2, ptr %6, align 4
  %7 = load ptr, ptr %4, align 8
  call void @_ZN12ciBaseObjectC2Ev(ptr noundef nonnull align 8 dereferenceable(12) %7)
  store ptr getelementptr inbounds inrange(-16, 32) ({ [6 x ptr] }, ptr @_ZTV8ciSymbol, i32 0, i32 0, i32 2), ptr %7, align 8
  %8 = getelementptr inbounds %class.ciSymbol, ptr %7, i32 0, i32 2
  %9 = load ptr, ptr %5, align 8
  store ptr %9, ptr %8, align 8
  %10 = getelementptr inbounds %class.ciSymbol, ptr %7, i32 0, i32 3
  %11 = load i32, ptr %6, align 4
  store i32 %11, ptr %10, align 8
  %12 = getelementptr inbounds %class.ciSymbol, ptr %7, i32 0, i32 2
  %13 = load ptr, ptr %12, align 8
  call void @_ZN6Symbol18increment_refcountEv(ptr noundef nonnull align 4 dereferenceable(8) %13)
  ret void
}