; Function Attrs: mustprogress nounwind uwtable
define hidden void @_ZN8ciSymbolC2EP6Symbol10vmSymbolID(ptr nocapture noundef nonnull writeonly align 8 dereferenceable(28) %0, ptr noundef nonnull %1, i32 noundef %2) unnamed_addr #0 align 2 {
  %4 = getelementptr inbounds i8, ptr %0, i64 8
  store i32 0, ptr %4, align 8
  store ptr getelementptr inbounds inrange(-16, 32) (i8, ptr @_ZTV8ciSymbol, i64 16), ptr %0, align 8
  %5 = getelementptr inbounds i8, ptr %0, i64 16
  store ptr %1, ptr %5, align 8
  %6 = getelementptr inbounds i8, ptr %0, i64 24
  store i32 %2, ptr %6, align 8
  tail call void @_ZN6Symbol18increment_refcountEv(ptr noundef nonnull align 4 dereferenceable(8) %1) #7
  ret void
}